target datalayout = "e-m:e-p270:32:32-p271:32:32-p272:64:64-i64:64-i128:128-f80:128-n8:16:32:64-S128"
target triple = "x86_64-pc-linux-gnu"

%struct.dt_pthread_mutex_t = type { %union.pthread_mutex_t }
%union.pthread_mutex_t = type { %struct.__pthread_mutex_s }
%struct.__pthread_mutex_s = type { i32, i32, i32, i32, i32, i16, i16, %struct.__pthread_internal_list }
%struct.__pthread_internal_list = type { ptr, ptr }
%struct._GError = type { i32, i32, ptr }
%struct._dt_delete_modal_dialog_t = type { i32, ptr, ptr, i32, %struct.dt_pthread_mutex_t, %union.pthread_cond_t }
%union.pthread_cond_t = type { %struct.__pthread_cond_s }
%struct.__pthread_cond_s = type { %union.__atomic_wide_counter, %union.__atomic_wide_counter, [2 x i32], [2 x i32], i32, i32, [2 x i32] }
%union.__atomic_wide_counter = type { i64 }

@.str.11 = private unnamed_addr constant [14 x i8] c"send_to_trash\00", align 1
@.str.110 = private unnamed_addr constant [23 x i8] c"standard::display-name\00", align 1

; Function Attrs: inlinehint nounwind uwtable
define internal i32 @dt_pthread_mutex_destroy(ptr noundef %0) #5 {
  %2 = alloca ptr, align 8
  %3 = alloca i32, align 4
  store ptr %0, ptr %2, align 8, !tbaa !281
  call void @llvm.lifetime.start.p0(i64 4, ptr %3) #14
  %4 = load ptr, ptr %2, align 8, !tbaa !281
  %5 = getelementptr inbounds nuw %struct.dt_pthread_mutex_t, ptr %4, i32 0, i32 0
  %6 = call i32 @pthread_mutex_destroy(ptr noundef %5) #14
  store i32 %6, ptr %3, align 4, !tbaa !50
  %7 = load i32, ptr %3, align 4, !tbaa !50
  call void @llvm.lifetime.end.p0(i64 4, ptr %3) #14
  ret i32 %7
}

; Function Attrs: inlinehint nounwind uwtable
define internal i32 @dt_pthread_mutex_unlock(ptr noundef %0) #5 {
  %2 = alloca ptr, align 8
  store ptr %0, ptr %2, align 8, !tbaa !281
  %3 = load ptr, ptr %2, align 8, !tbaa !281
  %4 = getelementptr inbounds nuw %struct.dt_pthread_mutex_t, ptr %3, i32 0, i32 0
  %5 = call i32 @pthread_mutex_unlock(ptr noundef %4) #14
  ret i32 %5
}

; Function Attrs: inlinehint nounwind uwtable
define internal i32 @dt_pthread_cond_wait(ptr noundef %0, ptr noundef %1) #5 {
  %3 = alloca ptr, align 8
  %4 = alloca ptr, align 8
  store ptr %0, ptr %3, align 8, !tbaa !6
  store ptr %1, ptr %4, align 8, !tbaa !281
  %5 = load ptr, ptr %3, align 8, !tbaa !6
  %6 = load ptr, ptr %4, align 8, !tbaa !281
  %7 = getelementptr inbounds nuw %struct.dt_pthread_mutex_t, ptr %6, i32 0, i32 0
  %8 = call i32 @pthread_cond_wait(ptr noundef %5, ptr noundef %7)
  ret i32 %8
}

; Function Attrs: inlinehint nounwind uwtable
define internal i32 @dt_pthread_mutex_lock(ptr noundef %0) #5 {
  %2 = alloca ptr, align 8
  store ptr %0, ptr %2, align 8, !tbaa !281
  %3 = load ptr, ptr %2, align 8, !tbaa !281
  %4 = getelementptr inbounds nuw %struct.dt_pthread_mutex_t, ptr %3, i32 0, i32 0
  %5 = call i32 @pthread_mutex_lock(ptr noundef %4) #14
  ret i32 %5
}

; Function Attrs: inlinehint nounwind uwtable
define internal i32 @dt_pthread_mutex_init(ptr noundef %0, ptr noundef %1) #5 {
  %3 = alloca ptr, align 8
  %4 = alloca ptr, align 8
  store ptr %0, ptr %3, align 8, !tbaa !281
  store ptr %1, ptr %4, align 8, !tbaa !6
  %5 = load ptr, ptr %3, align 8, !tbaa !281
  %6 = getelementptr inbounds nuw %struct.dt_pthread_mutex_t, ptr %5, i32 0, i32 0
  %7 = load ptr, ptr %4, align 8, !tbaa !6
  %8 = call i32 @pthread_mutex_init(ptr noundef %6, ptr noundef %7) #14
  ret i32 %8
}

; Function Attrs: nounwind uwtable
define internal i32 @_dt_delete_file_display_modal_dialog(i32 noundef %0, ptr noundef %1, ptr noundef %2) #0 {
  %4 = alloca i32, align 4
  %5 = alloca ptr, align 8
  %6 = alloca ptr, align 8
  %7 = alloca %struct._dt_delete_modal_dialog_t, align 8
  store i32 %0, ptr %4, align 4, !tbaa !50
  store ptr %1, ptr %5, align 8, !tbaa !49
  store ptr %2, ptr %6, align 8, !tbaa !49
  call void @llvm.lifetime.start.p0(i64 120, ptr %7) #14
  %8 = load i32, ptr %4, align 4, !tbaa !50
  %9 = getelementptr inbounds nuw %struct._dt_delete_modal_dialog_t, ptr %7, i32 0, i32 0
  store i32 %8, ptr %9, align 8, !tbaa !276
  %10 = load ptr, ptr %5, align 8, !tbaa !49
  %11 = getelementptr inbounds nuw %struct._dt_delete_modal_dialog_t, ptr %7, i32 0, i32 1
  store ptr %10, ptr %11, align 8, !tbaa !278
  %12 = load ptr, ptr %6, align 8, !tbaa !49
  %13 = getelementptr inbounds nuw %struct._dt_delete_modal_dialog_t, ptr %7, i32 0, i32 2
  store ptr %12, ptr %13, align 8, !tbaa !279
  %14 = getelementptr inbounds nuw %struct._dt_delete_modal_dialog_t, ptr %7, i32 0, i32 3
  store i32 -1, ptr %14, align 8, !tbaa !280
  %15 = getelementptr inbounds nuw %struct._dt_delete_modal_dialog_t, ptr %7, i32 0, i32 4
  %16 = call i32 @dt_pthread_mutex_init(ptr noundef %15, ptr noundef null)
  %17 = getelementptr inbounds nuw %struct._dt_delete_modal_dialog_t, ptr %7, i32 0, i32 5
  %18 = call i32 @pthread_cond_init(ptr noundef %17, ptr noundef null) #14
  %19 = getelementptr inbounds nuw %struct._dt_delete_modal_dialog_t, ptr %7, i32 0, i32 4
  %20 = call i32 @dt_pthread_mutex_lock(ptr noundef %19)
  %21 = call i32 @gdk_threads_add_idle(ptr noundef @_dt_delete_dialog_main_thread, ptr noundef %7)
  br label %22

22:                                               ; preds = %26, %3
  %23 = getelementptr inbounds nuw %struct._dt_delete_modal_dialog_t, ptr %7, i32 0, i32 3
  %24 = load i32, ptr %23, align 8, !tbaa !280
  %25 = icmp eq i32 %24, -1
  br i1 %25, label %26, label %30

26:                                               ; preds = %22
  %27 = getelementptr inbounds nuw %struct._dt_delete_modal_dialog_t, ptr %7, i32 0, i32 5
  %28 = getelementptr inbounds nuw %struct._dt_delete_modal_dialog_t, ptr %7, i32 0, i32 4
  %29 = call i32 @dt_pthread_cond_wait(ptr noundef %27, ptr noundef %28)
  br label %22

30:                                               ; preds = %22
  %31 = getelementptr inbounds nuw %struct._dt_delete_modal_dialog_t, ptr %7, i32 0, i32 4
  %32 = call i32 @dt_pthread_mutex_unlock(ptr noundef %31)
  %33 = getelementptr inbounds nuw %struct._dt_delete_modal_dialog_t, ptr %7, i32 0, i32 4
  %34 = call i32 @dt_pthread_mutex_destroy(ptr noundef %33)
  %35 = getelementptr inbounds nuw %struct._dt_delete_modal_dialog_t, ptr %7, i32 0, i32 5
  %36 = call i32 @pthread_cond_destroy(ptr noundef %35) #14
  %37 = getelementptr inbounds nuw %struct._dt_delete_modal_dialog_t, ptr %7, i32 0, i32 3
  %38 = load i32, ptr %37, align 8, !tbaa !280
  call void @llvm.lifetime.end.p0(i64 120, ptr %7) #14
  ret i32 %38
}

; Function Attrs: nounwind uwtable
define internal i32 @delete_file_from_disk(ptr noundef %0, ptr noundef %1) #0 {
  %3 = alloca ptr, align 8
  %4 = alloca ptr, align 8
  %5 = alloca i32, align 4
  %6 = alloca ptr, align 8
  %7 = alloca i32, align 4
  %8 = alloca i32, align 4
  %9 = alloca ptr, align 8
  %10 = alloca i32, align 4
  %11 = alloca ptr, align 8
  %12 = alloca ptr, align 8
  store ptr %0, ptr %3, align 8, !tbaa !49
  store ptr %1, ptr %4, align 8, !tbaa !6
  call void @llvm.lifetime.start.p0(i64 4, ptr %5) #14
  store i32 0, ptr %5, align 4, !tbaa !50
  call void @llvm.lifetime.start.p0(i64 8, ptr %6) #14
  %13 = load ptr, ptr %3, align 8, !tbaa !49
  %14 = call ptr @g_file_new_for_path(ptr noundef %13)
  store ptr %14, ptr %6, align 8, !tbaa !268
  call void @llvm.lifetime.start.p0(i64 4, ptr %7) #14
  %15 = call i32 @dt_conf_get_bool(ptr noundef @.str.11)
  store i32 %15, ptr %7, align 4, !tbaa !50
  br label %16

16:                                               ; preds = %112, %2
  %17 = load i32, ptr %5, align 4, !tbaa !50
  %18 = icmp eq i32 %17, 0
  br i1 %18, label %19, label %113

19:                                               ; preds = %16
  call void @llvm.lifetime.start.p0(i64 4, ptr %8) #14
  store i32 0, ptr %8, align 4, !tbaa !50
  call void @llvm.lifetime.start.p0(i64 8, ptr %9) #14
  store ptr null, ptr %9, align 8, !tbaa !270
  %20 = load i32, ptr %7, align 4, !tbaa !50
  %21 = icmp ne i32 %20, 0
  br i1 %21, label %22, label %25

22:                                               ; preds = %19
  %23 = load ptr, ptr %6, align 8, !tbaa !268
  %24 = call i32 @g_file_trash(ptr noundef %23, ptr noundef null, ptr noundef %9)
  store i32 %24, ptr %8, align 4, !tbaa !50
  br label %28

25:                                               ; preds = %19
  %26 = load ptr, ptr %6, align 8, !tbaa !268
  %27 = call i32 @g_file_delete(ptr noundef %26, ptr noundef null, ptr noundef %9)
  store i32 %27, ptr %8, align 4, !tbaa !50
  br label %28

28:                                               ; preds = %25, %22
  %29 = load i32, ptr %8, align 4, !tbaa !50
  %30 = icmp ne i32 %29, 0
  br i1 %30, label %36, label %31

31:                                               ; preds = %28
  %32 = load ptr, ptr %9, align 8, !tbaa !270
  %33 = call i32 @g_io_error_quark()
  %34 = call i32 @g_error_matches(ptr noundef %32, i32 noundef %33, i32 noundef 1)
  %35 = icmp ne i32 %34, 0
  br i1 %35, label %36, label %37

36:                                               ; preds = %31, %28
  store i32 1, ptr %5, align 4, !tbaa !50
  br label %107

37:                                               ; preds = %31
  call void @llvm.lifetime.start.p0(i64 4, ptr %10) #14
  %38 = load ptr, ptr %4, align 8, !tbaa !6
  %39 = load i32, ptr %38, align 4, !tbaa !50
  store i32 %39, ptr %10, align 4, !tbaa !50
  %40 = load i32, ptr %10, align 4, !tbaa !50
  %41 = icmp eq i32 %40, 0
  br i1 %41, label %49, label %42

42:                                               ; preds = %37
  %43 = load i32, ptr %7, align 4, !tbaa !50
  %44 = icmp ne i32 %43, 0
  br i1 %44, label %85, label %45

45:                                               ; preds = %42
  %46 = load i32, ptr %10, align 4, !tbaa !50
  %47 = and i32 %46, 16
  %48 = icmp ne i32 %47, 0
  br i1 %48, label %85, label %49

49:                                               ; preds = %45, %37
  call void @llvm.lifetime.start.p0(i64 8, ptr %11) #14
  store ptr null, ptr %11, align 8, !tbaa !49
  call void @llvm.lifetime.start.p0(i64 8, ptr %12) #14
  %50 = load ptr, ptr %6, align 8, !tbaa !268
  %51 = call ptr @g_file_query_info(ptr noundef %50, ptr noundef @.str.110, i32 noundef 0, ptr noundef null, ptr noundef null)
  store ptr %51, ptr %12, align 8, !tbaa !272
  %52 = load ptr, ptr %12, align 8, !tbaa !272
  %53 = icmp ne ptr %52, null
  br i1 %53, label %54, label %57

54:                                               ; preds = %49
  %55 = load ptr, ptr %12, align 8, !tbaa !272
  %56 = call ptr @g_file_info_get_attribute_string(ptr noundef %55, ptr noundef @.str.110)
  store ptr %56, ptr %11, align 8, !tbaa !49
  br label %57

57:                                               ; preds = %54, %49
  %58 = load i32, ptr %7, align 4, !tbaa !50
  %59 = load ptr, ptr %11, align 8, !tbaa !49
  %60 = icmp eq ptr %59, null
  br i1 %60, label %61, label %63

61:                                               ; preds = %57
  %62 = load ptr, ptr %3, align 8, !tbaa !49
  br label %65

63:                                               ; preds = %57
  %64 = load ptr, ptr %11, align 8, !tbaa !49
  br label %65

65:                                               ; preds = %63, %61
  %66 = phi ptr [ %62, %61 ], [ %64, %63 ]
  %67 = load ptr, ptr %9, align 8, !tbaa !270
  %68 = icmp eq ptr %67, null
  br i1 %68, label %69, label %70

69:                                               ; preds = %65
  br label %74

70:                                               ; preds = %65
  %71 = load ptr, ptr %9, align 8, !tbaa !270
  %72 = getelementptr inbounds nuw %struct._GError, ptr %71, i32 0, i32 2
  %73 = load ptr, ptr %72, align 8, !tbaa !274
  br label %74

74:                                               ; preds = %70, %69
  %75 = phi ptr [ null, %69 ], [ %73, %70 ]
  %76 = call i32 @_dt_delete_file_display_modal_dialog(i32 noundef %58, ptr noundef %66, ptr noundef %75)
  store i32 %76, ptr %10, align 4, !tbaa !50
  %77 = load ptr, ptr %12, align 8, !tbaa !272
  call void @g_object_unref(ptr noundef %77)
  %78 = load i32, ptr %10, align 4, !tbaa !50
  %79 = and i32 %78, 32
  %80 = icmp ne i32 %79, 0
  br i1 %80, label %81, label %84

81:                                               ; preds = %74
  %82 = load i32, ptr %10, align 4, !tbaa !50
  %83 = load ptr, ptr %4, align 8, !tbaa !6
  store i32 %82, ptr %83, align 4, !tbaa !50
  br label %84

84:                                               ; preds = %81, %74
  call void @llvm.lifetime.end.p0(i64 8, ptr %12) #14
  call void @llvm.lifetime.end.p0(i64 8, ptr %11) #14
  br label %85

85:                                               ; preds = %84, %45, %42
  %86 = load i32, ptr %7, align 4, !tbaa !50
  %87 = icmp ne i32 %86, 0
  br i1 %87, label %88, label %93

88:                                               ; preds = %85
  %89 = load i32, ptr %10, align 4, !tbaa !50
  %90 = and i32 %89, 17
  %91 = icmp ne i32 %90, 0
  br i1 %91, label %92, label %93

92:                                               ; preds = %88
  store i32 0, ptr %7, align 4, !tbaa !50
  br label %106

93:                                               ; preds = %88, %85
  %94 = load i32, ptr %10, align 4, !tbaa !50
  %95 = and i32 %94, 2
  %96 = icmp ne i32 %95, 0
  br i1 %96, label %97, label %98

97:                                               ; preds = %93
  store i32 2, ptr %5, align 4, !tbaa !50
  br label %105

98:                                               ; preds = %93
  %99 = load i32, ptr %10, align 4, !tbaa !50
  %100 = and i32 %99, 4
  %101 = icmp ne i32 %100, 0
  br i1 %101, label %102, label %103

102:                                              ; preds = %98
  store i32 3, ptr %5, align 4, !tbaa !50
  br label %104

103:                                              ; preds = %98
  store i32 4, ptr %5, align 4, !tbaa !50
  br label %104

104:                                              ; preds = %103, %102
  br label %105

105:                                              ; preds = %104, %97
  br label %106

106:                                              ; preds = %105, %92
  call void @llvm.lifetime.end.p0(i64 4, ptr %10) #14
  br label %107

107:                                              ; preds = %106, %36
  %108 = load ptr, ptr %9, align 8, !tbaa !270
  %109 = icmp ne ptr %108, null
  br i1 %109, label %110, label %112

110:                                              ; preds = %107
  %111 = load ptr, ptr %9, align 8, !tbaa !270
  call void @g_error_free(ptr noundef %111)
  br label %112

112:                                              ; preds = %110, %107
  call void @llvm.lifetime.end.p0(i64 8, ptr %9) #14
  call void @llvm.lifetime.end.p0(i64 4, ptr %8) #14
  br label %16

113:                                              ; preds = %16
  %114 = load ptr, ptr %6, align 8, !tbaa !268
  %115 = icmp ne ptr %114, null
  br i1 %115, label %116, label %118

116:                                              ; preds = %113
  %117 = load ptr, ptr %6, align 8, !tbaa !268
  call void @g_object_unref(ptr noundef %117)
  br label %118

118:                                              ; preds = %116, %113
  %119 = load i32, ptr %5, align 4, !tbaa !50
  call void @llvm.lifetime.end.p0(i64 4, ptr %7) #14
  call void @llvm.lifetime.end.p0(i64 8, ptr %6) #14
  call void @llvm.lifetime.end.p0(i64 4, ptr %5) #14
  ret i32 %119
}