; Function Attrs: nounwind uwtable
define internal fastcc range(i32 1, 5) i32 @delete_file_from_disk(ptr noundef %0, ptr noundef nonnull captures(none) %1) unnamed_addr #0 {
  %3 = alloca %struct._dt_delete_modal_dialog_t, align 8
  %4 = alloca ptr, align 8
  %5 = tail call ptr @g_file_new_for_path(ptr noundef %0) #17
  %6 = tail call i32 @dt_conf_get_bool(ptr noundef nonnull @.str.11) #17
  %7 = getelementptr inbounds nuw i8, ptr %3, i64 8
  %8 = getelementptr inbounds nuw i8, ptr %3, i64 16
  %9 = getelementptr inbounds nuw i8, ptr %3, i64 24
  %10 = getelementptr inbounds nuw i8, ptr %3, i64 32
  %11 = getelementptr inbounds nuw i8, ptr %3, i64 72
  br label %12

12:                                               ; preds = %2, %66
  %.03049 = phi i32 [ %6, %2 ], [ %.131, %66 ]
  call void @llvm.lifetime.start.p0(i64 8, ptr nonnull %4) #17
  store ptr null, ptr %4, align 8, !tbaa !224
  %.not38 = icmp eq i32 %.03049, 0
  br i1 %.not38, label %15, label %13

13:                                               ; preds = %12
  %14 = call i32 @g_file_trash(ptr noundef %5, ptr noundef null, ptr noundef nonnull %4) #17
  br label %17

15:                                               ; preds = %12
  %16 = call i32 @g_file_delete(ptr noundef %5, ptr noundef null, ptr noundef nonnull %4) #17
  br label %17

17:                                               ; preds = %15, %13
  %.029 = phi i32 [ %14, %13 ], [ %16, %15 ]
  %.not39 = icmp eq i32 %.029, 0
  br i1 %.not39, label %18, label %63

18:                                               ; preds = %17
  %19 = load ptr, ptr %4, align 8, !tbaa !224
  %20 = call i32 @g_io_error_quark() #17
  %21 = call i32 @g_error_matches(ptr noundef %19, i32 noundef %20, i32 noundef 1) #17
  %.not40 = icmp eq i32 %21, 0
  br i1 %.not40, label %22, label %63

22:                                               ; preds = %18
  %23 = load i32, ptr %1, align 4, !tbaa !68
  %24 = icmp eq i32 %23, 0
  br i1 %24, label %28, label %25

25:                                               ; preds = %22
  %26 = and i32 %23, 16
  %27 = or i32 %26, %.03049
  %or.cond = icmp eq i32 %27, 0
  br i1 %or.cond, label %28, label %57

28:                                               ; preds = %25, %22
  %29 = call ptr @g_file_query_info(ptr noundef %5, ptr noundef nonnull @.str.110, i32 noundef 0, ptr noundef null, ptr noundef null) #17
  %.not42 = icmp eq ptr %29, null
  br i1 %.not42, label %32, label %30

30:                                               ; preds = %28
  %31 = call ptr @g_file_info_get_attribute_string(ptr noundef nonnull %29, ptr noundef nonnull @.str.110) #17
  br label %32

32:                                               ; preds = %30, %28
  %.027 = phi ptr [ %31, %30 ], [ null, %28 ]
  %33 = icmp eq ptr %.027, null
  %34 = select i1 %33, ptr %0, ptr %.027
  %35 = load ptr, ptr %4, align 8, !tbaa !224
  %36 = icmp eq ptr %35, null
  br i1 %36, label %40, label %37

37:                                               ; preds = %32
  %38 = getelementptr inbounds nuw i8, ptr %35, i64 8
  %39 = load ptr, ptr %38, align 8, !tbaa !226
  br label %40

40:                                               ; preds = %32, %37
  %41 = phi ptr [ %39, %37 ], [ null, %32 ]
  call void @llvm.lifetime.start.p0(i64 120, ptr nonnull %3) #17
  store i32 %.03049, ptr %3, align 8, !tbaa !228
  store ptr %34, ptr %7, align 8, !tbaa !230
  store ptr %41, ptr %8, align 8, !tbaa !231
  store i32 -1, ptr %9, align 8, !tbaa !232
  %42 = call i32 @pthread_mutex_init(ptr noundef nonnull %10, ptr noundef null) #17
  %43 = call i32 @pthread_cond_init(ptr noundef nonnull %11, ptr noundef null) #17
  %44 = call i32 @pthread_mutex_lock(ptr noundef nonnull %10) #17
  %45 = call i32 @gdk_threads_add_idle(ptr noundef nonnull @_dt_delete_dialog_main_thread, ptr noundef nonnull %3) #17
  %46 = load i32, ptr %9, align 8, !tbaa !232
  %47 = icmp eq i32 %46, -1
  br i1 %47, label %.lr.ph.i, label %_dt_delete_file_display_modal_dialog.exit

.lr.ph.i:                                         ; preds = %40, %.lr.ph.i
  %48 = call i32 @pthread_cond_wait(ptr noundef nonnull %11, ptr noundef nonnull %10) #17
  %49 = load i32, ptr %9, align 8, !tbaa !232
  %50 = icmp eq i32 %49, -1
  br i1 %50, label %.lr.ph.i, label %_dt_delete_file_display_modal_dialog.exit

_dt_delete_file_display_modal_dialog.exit:        ; preds = %.lr.ph.i, %40
  %51 = call i32 @pthread_mutex_unlock(ptr noundef nonnull %10) #17
  %52 = call i32 @pthread_mutex_destroy(ptr noundef nonnull %10) #17
  %53 = call i32 @pthread_cond_destroy(ptr noundef nonnull %11) #17
  %54 = load i32, ptr %9, align 8, !tbaa !232
  call void @llvm.lifetime.end.p0(i64 120, ptr nonnull %3) #17
  call void @g_object_unref(ptr noundef %29) #17
  %55 = and i32 %54, 32
  %.not43 = icmp eq i32 %55, 0
  br i1 %.not43, label %57, label %56

56:                                               ; preds = %_dt_delete_file_display_modal_dialog.exit
  store i32 %54, ptr %1, align 4, !tbaa !68
  br label %57

57:                                               ; preds = %_dt_delete_file_display_modal_dialog.exit, %56, %25
  %.028 = phi i32 [ %23, %25 ], [ %54, %56 ], [ %54, %_dt_delete_file_display_modal_dialog.exit ]
  %58 = and i32 %.028, 17
  %.not44 = icmp eq i32 %58, 0
  %or.cond48 = select i1 %.not38, i1 true, i1 %.not44
  br i1 %or.cond48, label %59, label %63

59:                                               ; preds = %57
  %60 = and i32 %.028, 2
  %.not45 = icmp eq i32 %60, 0
  br i1 %.not45, label %61, label %63

61:                                               ; preds = %59
  %62 = and i32 %.028, 4
  %.not46 = icmp eq i32 %62, 0
  %. = select i1 %.not46, i32 4, i32 3
  br label %63

63:                                               ; preds = %57, %59, %61, %17, %18
  %.131 = phi i32 [ %.03049, %18 ], [ %.03049, %17 ], [ 0, %57 ], [ %.03049, %59 ], [ %.03049, %61 ]
  %.1 = phi i32 [ 1, %18 ], [ 1, %17 ], [ 0, %57 ], [ 2, %59 ], [ %., %61 ]
  %64 = load ptr, ptr %4, align 8, !tbaa !224
  %.not47 = icmp eq ptr %64, null
  br i1 %.not47, label %66, label %65

65:                                               ; preds = %63
  call void @g_error_free(ptr noundef nonnull %64) #17
  br label %66

66:                                               ; preds = %65, %63
  call void @llvm.lifetime.end.p0(i64 8, ptr nonnull %4) #17
  %67 = icmp eq i32 %.1, 0
  br i1 %67, label %12, label %68

68:                                               ; preds = %66
  %.not = icmp eq ptr %5, null
  br i1 %.not, label %70, label %69

69:                                               ; preds = %68
  call void @g_object_unref(ptr noundef nonnull %5) #17
  br label %70

70:                                               ; preds = %69, %68
  ret i32 %.1
}